target datalayout = "e-m:e-p270:32:32-p271:32:32-p272:64:64-i64:64-i128:128-f80:128-n8:16:32:64-S128"
target triple = "x86_64-pc-linux-gnu"

%union.anon = type { i32 }
%struct.FSE_DStream_t = type { i64, i32, ptr, ptr }

@__const.FSE_isLittleEndian.one = private unnamed_addr constant %union.anon { i32 1 }, align 4

; Function Attrs: nounwind uwtable
define internal i64 @FSE_read64(ptr noundef %0) #0 {
  %2 = alloca ptr, align 8
  %3 = alloca i64, align 8
  store ptr %0, ptr %2, align 8, !tbaa !7
  call void @llvm.lifetime.start.p0(i64 8, ptr %3) #8
  %4 = load ptr, ptr %2, align 8, !tbaa !7
  call void @llvm.memcpy.p0.p0.i64(ptr align 8 %3, ptr align 1 %4, i64 8, i1 false)
  %5 = load i64, ptr %3, align 8, !tbaa !3
  call void @llvm.lifetime.end.p0(i64 8, ptr %3) #8
  ret i64 %5
}

; Function Attrs: nounwind uwtable
define internal i32 @FSE_read32(ptr noundef %0) #0 {
  %2 = alloca ptr, align 8
  %3 = alloca i32, align 4
  store ptr %0, ptr %2, align 8, !tbaa !7
  call void @llvm.lifetime.start.p0(i64 4, ptr %3) #8
  %4 = load ptr, ptr %2, align 8, !tbaa !7
  call void @llvm.memcpy.p0.p0.i64(ptr align 4 %3, ptr align 1 %4, i64 4, i1 false)
  %5 = load i32, ptr %3, align 4, !tbaa !11
  call void @llvm.lifetime.end.p0(i64 4, ptr %3) #8
  ret i32 %5
}

; Function Attrs: nounwind uwtable
define internal i32 @FSE_isLittleEndian() #0 {
  %1 = alloca %union.anon, align 4
  call void @llvm.lifetime.start.p0(i64 4, ptr %1) #8
  call void @llvm.memcpy.p0.p0.i64(ptr align 4 %1, ptr align 4 @__const.FSE_isLittleEndian.one, i64 4, i1 false)
  %2 = getelementptr inbounds [4 x i8], ptr %1, i64 0, i64 0
  %3 = load i8, ptr %2, align 4, !tbaa !15
  %4 = zext i8 %3 to i32
  call void @llvm.lifetime.end.p0(i64 4, ptr %1) #8
  ret i32 %4
}

; Function Attrs: nounwind uwtable
define internal i64 @FSE_readLE64(ptr noundef %0) #0 {
  %2 = alloca i64, align 8
  %3 = alloca ptr, align 8
  %4 = alloca ptr, align 8
  store ptr %0, ptr %3, align 8, !tbaa !7
  %5 = call i32 @FSE_isLittleEndian()
  %6 = icmp ne i32 %5, 0
  br i1 %6, label %7, label %10

7:                                                ; preds = %1
  %8 = load ptr, ptr %3, align 8, !tbaa !7
  %9 = call i64 @FSE_read64(ptr noundef %8)
  store i64 %9, ptr %2, align 8
  br label %58

10:                                               ; preds = %1
  call void @llvm.lifetime.start.p0(i64 8, ptr %4) #8
  %11 = load ptr, ptr %3, align 8, !tbaa !7
  store ptr %11, ptr %4, align 8, !tbaa !9
  %12 = load ptr, ptr %4, align 8, !tbaa !9
  %13 = getelementptr inbounds i8, ptr %12, i64 0
  %14 = load i8, ptr %13, align 1, !tbaa !15
  %15 = zext i8 %14 to i64
  %16 = load ptr, ptr %4, align 8, !tbaa !9
  %17 = getelementptr inbounds i8, ptr %16, i64 1
  %18 = load i8, ptr %17, align 1, !tbaa !15
  %19 = zext i8 %18 to i64
  %20 = shl i64 %19, 8
  %21 = add i64 %15, %20
  %22 = load ptr, ptr %4, align 8, !tbaa !9
  %23 = getelementptr inbounds i8, ptr %22, i64 2
  %24 = load i8, ptr %23, align 1, !tbaa !15
  %25 = zext i8 %24 to i64
  %26 = shl i64 %25, 16
  %27 = add i64 %21, %26
  %28 = load ptr, ptr %4, align 8, !tbaa !9
  %29 = getelementptr inbounds i8, ptr %28, i64 3
  %30 = load i8, ptr %29, align 1, !tbaa !15
  %31 = zext i8 %30 to i64
  %32 = shl i64 %31, 24
  %33 = add i64 %27, %32
  %34 = load ptr, ptr %4, align 8, !tbaa !9
  %35 = getelementptr inbounds i8, ptr %34, i64 4
  %36 = load i8, ptr %35, align 1, !tbaa !15
  %37 = zext i8 %36 to i64
  %38 = shl i64 %37, 32
  %39 = add i64 %33, %38
  %40 = load ptr, ptr %4, align 8, !tbaa !9
  %41 = getelementptr inbounds i8, ptr %40, i64 5
  %42 = load i8, ptr %41, align 1, !tbaa !15
  %43 = zext i8 %42 to i64
  %44 = shl i64 %43, 40
  %45 = add i64 %39, %44
  %46 = load ptr, ptr %4, align 8, !tbaa !9
  %47 = getelementptr inbounds i8, ptr %46, i64 6
  %48 = load i8, ptr %47, align 1, !tbaa !15
  %49 = zext i8 %48 to i64
  %50 = shl i64 %49, 48
  %51 = add i64 %45, %50
  %52 = load ptr, ptr %4, align 8, !tbaa !9
  %53 = getelementptr inbounds i8, ptr %52, i64 7
  %54 = load i8, ptr %53, align 1, !tbaa !15
  %55 = zext i8 %54 to i64
  %56 = shl i64 %55, 56
  %57 = add i64 %51, %56
  store i64 %57, ptr %2, align 8
  call void @llvm.lifetime.end.p0(i64 8, ptr %4) #8
  br label %58

58:                                               ; preds = %10, %7
  %59 = load i64, ptr %2, align 8
  ret i64 %59
}

; Function Attrs: nounwind uwtable
define internal i32 @FSE_readLE32(ptr noundef %0) #0 {
  %2 = alloca i32, align 4
  %3 = alloca ptr, align 8
  %4 = alloca ptr, align 8
  store ptr %0, ptr %3, align 8, !tbaa !7
  %5 = call i32 @FSE_isLittleEndian()
  %6 = icmp ne i32 %5, 0
  br i1 %6, label %7, label %10

7:                                                ; preds = %1
  %8 = load ptr, ptr %3, align 8, !tbaa !7
  %9 = call i32 @FSE_read32(ptr noundef %8)
  store i32 %9, ptr %2, align 4
  br label %34

10:                                               ; preds = %1
  call void @llvm.lifetime.start.p0(i64 8, ptr %4) #8
  %11 = load ptr, ptr %3, align 8, !tbaa !7
  store ptr %11, ptr %4, align 8, !tbaa !9
  %12 = load ptr, ptr %4, align 8, !tbaa !9
  %13 = getelementptr inbounds i8, ptr %12, i64 0
  %14 = load i8, ptr %13, align 1, !tbaa !15
  %15 = zext i8 %14 to i32
  %16 = load ptr, ptr %4, align 8, !tbaa !9
  %17 = getelementptr inbounds i8, ptr %16, i64 1
  %18 = load i8, ptr %17, align 1, !tbaa !15
  %19 = zext i8 %18 to i32
  %20 = shl i32 %19, 8
  %21 = add i32 %15, %20
  %22 = load ptr, ptr %4, align 8, !tbaa !9
  %23 = getelementptr inbounds i8, ptr %22, i64 2
  %24 = load i8, ptr %23, align 1, !tbaa !15
  %25 = zext i8 %24 to i32
  %26 = shl i32 %25, 16
  %27 = add i32 %21, %26
  %28 = load ptr, ptr %4, align 8, !tbaa !9
  %29 = getelementptr inbounds i8, ptr %28, i64 3
  %30 = load i8, ptr %29, align 1, !tbaa !15
  %31 = zext i8 %30 to i32
  %32 = shl i32 %31, 24
  %33 = add i32 %27, %32
  store i32 %33, ptr %2, align 4
  call void @llvm.lifetime.end.p0(i64 8, ptr %4) #8
  br label %34

34:                                               ; preds = %10, %7
  %35 = load i32, ptr %2, align 4
  ret i32 %35
}

; Function Attrs: nounwind uwtable
define internal i32 @FSE_32bits() #0 {
  ret i32 0
}

; Function Attrs: alwaysinline nounwind uwtable
define internal i32 @FSE_highbit32(i32 noundef %0) #5 {
  %2 = alloca i32, align 4
  store i32 %0, ptr %2, align 4, !tbaa !11
  %3 = load i32, ptr %2, align 4, !tbaa !11
  %4 = call i32 @llvm.ctlz.i32(i32 %3, i1 true)
  %5 = xor i32 %4, 31
  ret i32 %5
}

; Function Attrs: nounwind uwtable
define internal i64 @FSE_readLEST(ptr noundef %0) #0 {
  %2 = alloca i64, align 8
  %3 = alloca ptr, align 8
  store ptr %0, ptr %3, align 8, !tbaa !7
  %4 = call i32 @FSE_32bits()
  %5 = icmp ne i32 %4, 0
  br i1 %5, label %6, label %10

6:                                                ; preds = %1
  %7 = load ptr, ptr %3, align 8, !tbaa !7
  %8 = call i32 @FSE_readLE32(ptr noundef %7)
  %9 = zext i32 %8 to i64
  store i64 %9, ptr %2, align 8
  br label %13

10:                                               ; preds = %1
  %11 = load ptr, ptr %3, align 8, !tbaa !7
  %12 = call i64 @FSE_readLE64(ptr noundef %11)
  store i64 %12, ptr %2, align 8
  br label %13

13:                                               ; preds = %10, %6
  %14 = load i64, ptr %2, align 8
  ret i64 %14
}

; Function Attrs: nounwind uwtable
define internal i64 @FSE_initDStream(ptr noundef %0, ptr noundef %1, i64 noundef %2) #0 {
  %4 = alloca i64, align 8
  %5 = alloca ptr, align 8
  %6 = alloca ptr, align 8
  %7 = alloca i64, align 8
  %8 = alloca i32, align 4
  %9 = alloca i32, align 4
  %10 = alloca i32, align 4
  store ptr %0, ptr %5, align 8, !tbaa !7
  store ptr %1, ptr %6, align 8, !tbaa !7
  store i64 %2, ptr %7, align 8, !tbaa !3
  %11 = load i64, ptr %7, align 8, !tbaa !3
  %12 = icmp ult i64 %11, 1
  br i1 %12, label %13, label %14

13:                                               ; preds = %3
  store i64 -6, ptr %4, align 8
  br label %170

14:                                               ; preds = %3
  %15 = load i64, ptr %7, align 8, !tbaa !3
  %16 = icmp uge i64 %15, 8
  br i1 %16, label %17, label %51

17:                                               ; preds = %14
  call void @llvm.lifetime.start.p0(i64 4, ptr %8) #8
  %18 = load ptr, ptr %6, align 8, !tbaa !7
  %19 = load ptr, ptr %5, align 8, !tbaa !7
  %20 = getelementptr inbounds nuw %struct.FSE_DStream_t, ptr %19, i32 0, i32 3
  store ptr %18, ptr %20, align 8, !tbaa !60
  %21 = load ptr, ptr %6, align 8, !tbaa !7
  %22 = load i64, ptr %7, align 8, !tbaa !3
  %23 = getelementptr inbounds nuw i8, ptr %21, i64 %22
  %24 = getelementptr inbounds i8, ptr %23, i64 -8
  %25 = load ptr, ptr %5, align 8, !tbaa !7
  %26 = getelementptr inbounds nuw %struct.FSE_DStream_t, ptr %25, i32 0, i32 2
  store ptr %24, ptr %26, align 8, !tbaa !57
  %27 = load ptr, ptr %5, align 8, !tbaa !7
  %28 = getelementptr inbounds nuw %struct.FSE_DStream_t, ptr %27, i32 0, i32 2
  %29 = load ptr, ptr %28, align 8, !tbaa !57
  %30 = call i64 @FSE_readLEST(ptr noundef %29)
  %31 = load ptr, ptr %5, align 8, !tbaa !7
  %32 = getelementptr inbounds nuw %struct.FSE_DStream_t, ptr %31, i32 0, i32 0
  store i64 %30, ptr %32, align 8, !tbaa !59
  %33 = load ptr, ptr %6, align 8, !tbaa !7
  %34 = load i64, ptr %7, align 8, !tbaa !3
  %35 = sub i64 %34, 1
  %36 = getelementptr inbounds nuw i8, ptr %33, i64 %35
  %37 = load i8, ptr %36, align 1, !tbaa !15
  %38 = zext i8 %37 to i32
  store i32 %38, ptr %8, align 4, !tbaa !11
  %39 = load i32, ptr %8, align 4, !tbaa !11
  %40 = icmp eq i32 %39, 0
  br i1 %40, label %41, label %42

41:                                               ; preds = %17
  store i64 -1, ptr %4, align 8
  store i32 1, ptr %9, align 4
  br label %48

42:                                               ; preds = %17
  %43 = load i32, ptr %8, align 4, !tbaa !11
  %44 = call i32 @FSE_highbit32(i32 noundef %43)
  %45 = sub i32 8, %44
  %46 = load ptr, ptr %5, align 8, !tbaa !7
  %47 = getelementptr inbounds nuw %struct.FSE_DStream_t, ptr %46, i32 0, i32 1
  store i32 %45, ptr %47, align 8, !tbaa !58
  store i32 0, ptr %9, align 4
  br label %48

48:                                               ; preds = %42, %41
  call void @llvm.lifetime.end.p0(i64 4, ptr %8) #8
  %49 = load i32, ptr %9, align 4
  switch i32 %49, label %172 [
    i32 0, label %50
    i32 1, label %170
  ]

50:                                               ; preds = %48
  br label %168

51:                                               ; preds = %14
  call void @llvm.lifetime.start.p0(i64 4, ptr %10) #8
  %52 = load ptr, ptr %6, align 8, !tbaa !7
  %53 = load ptr, ptr %5, align 8, !tbaa !7
  %54 = getelementptr inbounds nuw %struct.FSE_DStream_t, ptr %53, i32 0, i32 3
  store ptr %52, ptr %54, align 8, !tbaa !60
  %55 = load ptr, ptr %5, align 8, !tbaa !7
  %56 = getelementptr inbounds nuw %struct.FSE_DStream_t, ptr %55, i32 0, i32 3
  %57 = load ptr, ptr %56, align 8, !tbaa !60
  %58 = load ptr, ptr %5, align 8, !tbaa !7
  %59 = getelementptr inbounds nuw %struct.FSE_DStream_t, ptr %58, i32 0, i32 2
  store ptr %57, ptr %59, align 8, !tbaa !57
  %60 = load ptr, ptr %5, align 8, !tbaa !7
  %61 = getelementptr inbounds nuw %struct.FSE_DStream_t, ptr %60, i32 0, i32 3
  %62 = load ptr, ptr %61, align 8, !tbaa !60
  %63 = load i8, ptr %62, align 1, !tbaa !15
  %64 = zext i8 %63 to i64
  %65 = load ptr, ptr %5, align 8, !tbaa !7
  %66 = getelementptr inbounds nuw %struct.FSE_DStream_t, ptr %65, i32 0, i32 0
  store i64 %64, ptr %66, align 8, !tbaa !59
  %67 = load i64, ptr %7, align 8, !tbaa !3
  switch i64 %67, label %140 [
    i64 7, label %68
    i64 6, label %80
    i64 5, label %92
    i64 4, label %104
    i64 3, label %116
    i64 2, label %128
  ]

68:                                               ; preds = %51
  %69 = load ptr, ptr %5, align 8, !tbaa !7
  %70 = getelementptr inbounds nuw %struct.FSE_DStream_t, ptr %69, i32 0, i32 3
  %71 = load ptr, ptr %70, align 8, !tbaa !60
  %72 = getelementptr inbounds i8, ptr %71, i64 6
  %73 = load i8, ptr %72, align 1, !tbaa !15
  %74 = zext i8 %73 to i64
  %75 = shl i64 %74, 48
  %76 = load ptr, ptr %5, align 8, !tbaa !7
  %77 = getelementptr inbounds nuw %struct.FSE_DStream_t, ptr %76, i32 0, i32 0
  %78 = load i64, ptr %77, align 8, !tbaa !59
  %79 = add i64 %78, %75
  store i64 %79, ptr %77, align 8, !tbaa !59
  br label %80

80:                                               ; preds = %51, %68
  %81 = load ptr, ptr %5, align 8, !tbaa !7
  %82 = getelementptr inbounds nuw %struct.FSE_DStream_t, ptr %81, i32 0, i32 3
  %83 = load ptr, ptr %82, align 8, !tbaa !60
  %84 = getelementptr inbounds i8, ptr %83, i64 5
  %85 = load i8, ptr %84, align 1, !tbaa !15
  %86 = zext i8 %85 to i64
  %87 = shl i64 %86, 40
  %88 = load ptr, ptr %5, align 8, !tbaa !7
  %89 = getelementptr inbounds nuw %struct.FSE_DStream_t, ptr %88, i32 0, i32 0
  %90 = load i64, ptr %89, align 8, !tbaa !59
  %91 = add i64 %90, %87
  store i64 %91, ptr %89, align 8, !tbaa !59
  br label %92

92:                                               ; preds = %51, %80
  %93 = load ptr, ptr %5, align 8, !tbaa !7
  %94 = getelementptr inbounds nuw %struct.FSE_DStream_t, ptr %93, i32 0, i32 3
  %95 = load ptr, ptr %94, align 8, !tbaa !60
  %96 = getelementptr inbounds i8, ptr %95, i64 4
  %97 = load i8, ptr %96, align 1, !tbaa !15
  %98 = zext i8 %97 to i64
  %99 = shl i64 %98, 32
  %100 = load ptr, ptr %5, align 8, !tbaa !7
  %101 = getelementptr inbounds nuw %struct.FSE_DStream_t, ptr %100, i32 0, i32 0
  %102 = load i64, ptr %101, align 8, !tbaa !59
  %103 = add i64 %102, %99
  store i64 %103, ptr %101, align 8, !tbaa !59
  br label %104

104:                                              ; preds = %51, %92
  %105 = load ptr, ptr %5, align 8, !tbaa !7
  %106 = getelementptr inbounds nuw %struct.FSE_DStream_t, ptr %105, i32 0, i32 3
  %107 = load ptr, ptr %106, align 8, !tbaa !60
  %108 = getelementptr inbounds i8, ptr %107, i64 3
  %109 = load i8, ptr %108, align 1, !tbaa !15
  %110 = zext i8 %109 to i64
  %111 = shl i64 %110, 24
  %112 = load ptr, ptr %5, align 8, !tbaa !7
  %113 = getelementptr inbounds nuw %struct.FSE_DStream_t, ptr %112, i32 0, i32 0
  %114 = load i64, ptr %113, align 8, !tbaa !59
  %115 = add i64 %114, %111
  store i64 %115, ptr %113, align 8, !tbaa !59
  br label %116

116:                                              ; preds = %51, %104
  %117 = load ptr, ptr %5, align 8, !tbaa !7
  %118 = getelementptr inbounds nuw %struct.FSE_DStream_t, ptr %117, i32 0, i32 3
  %119 = load ptr, ptr %118, align 8, !tbaa !60
  %120 = getelementptr inbounds i8, ptr %119, i64 2
  %121 = load i8, ptr %120, align 1, !tbaa !15
  %122 = zext i8 %121 to i64
  %123 = shl i64 %122, 16
  %124 = load ptr, ptr %5, align 8, !tbaa !7
  %125 = getelementptr inbounds nuw %struct.FSE_DStream_t, ptr %124, i32 0, i32 0
  %126 = load i64, ptr %125, align 8, !tbaa !59
  %127 = add i64 %126, %123
  store i64 %127, ptr %125, align 8, !tbaa !59
  br label %128

128:                                              ; preds = %51, %116
  %129 = load ptr, ptr %5, align 8, !tbaa !7
  %130 = getelementptr inbounds nuw %struct.FSE_DStream_t, ptr %129, i32 0, i32 3
  %131 = load ptr, ptr %130, align 8, !tbaa !60
  %132 = getelementptr inbounds i8, ptr %131, i64 1
  %133 = load i8, ptr %132, align 1, !tbaa !15
  %134 = zext i8 %133 to i64
  %135 = shl i64 %134, 8
  %136 = load ptr, ptr %5, align 8, !tbaa !7
  %137 = getelementptr inbounds nuw %struct.FSE_DStream_t, ptr %136, i32 0, i32 0
  %138 = load i64, ptr %137, align 8, !tbaa !59
  %139 = add i64 %138, %135
  store i64 %139, ptr %137, align 8, !tbaa !59
  br label %140

140:                                              ; preds = %51, %128
  br label %141

141:                                              ; preds = %140
  %142 = load ptr, ptr %6, align 8, !tbaa !7
  %143 = load i64, ptr %7, align 8, !tbaa !3
  %144 = sub i64 %143, 1
  %145 = getelementptr inbounds nuw i8, ptr %142, i64 %144
  %146 = load i8, ptr %145, align 1, !tbaa !15
  %147 = zext i8 %146 to i32
  store i32 %147, ptr %10, align 4, !tbaa !11
  %148 = load i32, ptr %10, align 4, !tbaa !11
  %149 = icmp eq i32 %148, 0
  br i1 %149, label %150, label %151

150:                                              ; preds = %141
  store i64 -1, ptr %4, align 8
  store i32 1, ptr %9, align 4
  br label %165

151:                                              ; preds = %141
  %152 = load i32, ptr %10, align 4, !tbaa !11
  %153 = call i32 @FSE_highbit32(i32 noundef %152)
  %154 = sub i32 8, %153
  %155 = load ptr, ptr %5, align 8, !tbaa !7
  %156 = getelementptr inbounds nuw %struct.FSE_DStream_t, ptr %155, i32 0, i32 1
  store i32 %154, ptr %156, align 8, !tbaa !58
  %157 = load i64, ptr %7, align 8, !tbaa !3
  %158 = sub i64 8, %157
  %159 = trunc i64 %158 to i32
  %160 = mul i32 %159, 8
  %161 = load ptr, ptr %5, align 8, !tbaa !7
  %162 = getelementptr inbounds nuw %struct.FSE_DStream_t, ptr %161, i32 0, i32 1
  %163 = load i32, ptr %162, align 8, !tbaa !58
  %164 = add i32 %163, %160
  store i32 %164, ptr %162, align 8, !tbaa !58
  store i32 0, ptr %9, align 4
  br label %165

165:                                              ; preds = %151, %150
  call void @llvm.lifetime.end.p0(i64 4, ptr %10) #8
  %166 = load i32, ptr %9, align 4
  switch i32 %166, label %172 [
    i32 0, label %167
    i32 1, label %170
  ]

167:                                              ; preds = %165
  br label %168

168:                                              ; preds = %167, %50
  %169 = load i64, ptr %7, align 8, !tbaa !3
  store i64 %169, ptr %4, align 8
  br label %170

170:                                              ; preds = %168, %165, %48, %13
  %171 = load i64, ptr %4, align 8
  ret i64 %171

172:                                              ; preds = %165, %48
  unreachable
}