; Function Attrs: mustprogress nofree norecurse nosync nounwind willreturn memory(argmem: readwrite) uwtable
define internal fastcc range(i64 1, 0) i64 @FSE_initDStream(ptr noundef nonnull writeonly captures(none) %0, ptr noundef %1, i64 noundef %2) unnamed_addr #12 {
  %4 = icmp eq i64 %2, 0
  br i1 %4, label %77, label %5

5:                                                ; preds = %3
  %6 = icmp ugt i64 %2, 7
  %7 = getelementptr inbounds nuw i8, ptr %0, i64 24
  store ptr %1, ptr %7, align 8, !tbaa !19
  br i1 %6, label %8, label %20

8:                                                ; preds = %5
  %9 = getelementptr inbounds nuw i8, ptr %1, i64 %2
  %10 = getelementptr inbounds i8, ptr %9, i64 -8
  %11 = getelementptr inbounds nuw i8, ptr %0, i64 16
  store ptr %10, ptr %11, align 8, !tbaa !24
  %.val = load i64, ptr %10, align 1
  store i64 %.val, ptr %0, align 8, !tbaa !25
  %12 = getelementptr i8, ptr %9, i64 -1
  %13 = load i8, ptr %12, align 1, !tbaa !3
  %14 = icmp eq i8 %13, 0
  br i1 %14, label %77, label %.thread

.thread:                                          ; preds = %8
  %15 = zext i8 %13 to i32
  %16 = tail call range(i32 0, 33) i32 @llvm.ctlz.i32(i32 %15, i1 true)
  %17 = xor i32 %16, 31
  %18 = sub nuw nsw i32 8, %17
  %19 = getelementptr inbounds nuw i8, ptr %0, i64 8
  store i32 %18, ptr %19, align 8, !tbaa !26
  br label %77

20:                                               ; preds = %5
  %21 = getelementptr inbounds nuw i8, ptr %0, i64 16
  store ptr %1, ptr %21, align 8, !tbaa !24
  %22 = load i8, ptr %1, align 1, !tbaa !3
  %23 = zext i8 %22 to i64
  store i64 %23, ptr %0, align 8, !tbaa !25
  switch i64 %2, label %65 [
    i64 7, label %24
    i64 6, label %30
    i64 5, label %37
    i64 4, label %44
    i64 3, label %51
    i64 2, label %58
  ]

24:                                               ; preds = %20
  %25 = getelementptr inbounds nuw i8, ptr %1, i64 6
  %26 = load i8, ptr %25, align 1, !tbaa !3
  %27 = zext i8 %26 to i64
  %28 = shl nuw nsw i64 %27, 48
  %29 = or disjoint i64 %28, %23
  store i64 %29, ptr %0, align 8, !tbaa !25
  br label %30

30:                                               ; preds = %24, %20
  %31 = phi i64 [ %29, %24 ], [ %23, %20 ]
  %32 = getelementptr inbounds nuw i8, ptr %1, i64 5
  %33 = load i8, ptr %32, align 1, !tbaa !3
  %34 = zext i8 %33 to i64
  %35 = shl nuw nsw i64 %34, 40
  %36 = add nuw nsw i64 %35, %31
  store i64 %36, ptr %0, align 8, !tbaa !25
  br label %37

37:                                               ; preds = %30, %20
  %38 = phi i64 [ %36, %30 ], [ %23, %20 ]
  %39 = getelementptr inbounds nuw i8, ptr %1, i64 4
  %40 = load i8, ptr %39, align 1, !tbaa !3
  %41 = zext i8 %40 to i64
  %42 = shl nuw nsw i64 %41, 32
  %43 = add nuw nsw i64 %42, %38
  store i64 %43, ptr %0, align 8, !tbaa !25
  br label %44

44:                                               ; preds = %37, %20
  %45 = phi i64 [ %43, %37 ], [ %23, %20 ]
  %46 = getelementptr inbounds nuw i8, ptr %1, i64 3
  %47 = load i8, ptr %46, align 1, !tbaa !3
  %48 = zext i8 %47 to i64
  %49 = shl nuw nsw i64 %48, 24
  %50 = add nuw nsw i64 %49, %45
  store i64 %50, ptr %0, align 8, !tbaa !25
  br label %51

51:                                               ; preds = %44, %20
  %52 = phi i64 [ %50, %44 ], [ %23, %20 ]
  %53 = getelementptr inbounds nuw i8, ptr %1, i64 2
  %54 = load i8, ptr %53, align 1, !tbaa !3
  %55 = zext i8 %54 to i64
  %56 = shl nuw nsw i64 %55, 16
  %57 = add nuw nsw i64 %56, %52
  store i64 %57, ptr %0, align 8, !tbaa !25
  br label %58

58:                                               ; preds = %51, %20
  %59 = phi i64 [ %57, %51 ], [ %23, %20 ]
  %60 = getelementptr inbounds nuw i8, ptr %1, i64 1
  %61 = load i8, ptr %60, align 1, !tbaa !3
  %62 = zext i8 %61 to i64
  %63 = shl nuw nsw i64 %62, 8
  %64 = add nuw nsw i64 %63, %59
  store i64 %64, ptr %0, align 8, !tbaa !25
  br label %65

65:                                               ; preds = %20, %58
  %66 = getelementptr i8, ptr %1, i64 %2
  %67 = getelementptr i8, ptr %66, i64 -1
  %68 = load i8, ptr %67, align 1, !tbaa !3
  %69 = icmp eq i8 %68, 0
  br i1 %69, label %77, label %.thread51

.thread51:                                        ; preds = %65
  %70 = zext i8 %68 to i32
  %71 = tail call range(i32 0, 33) i32 @llvm.ctlz.i32(i32 %70, i1 true)
  %72 = getelementptr inbounds nuw i8, ptr %0, i64 8
  %73 = trunc nuw i64 %2 to i32
  %74 = shl nuw nsw i32 %73, 3
  %75 = sub nsw i32 %71, %74
  %76 = add nsw i32 %75, 41
  store i32 %76, ptr %72, align 8, !tbaa !26
  br label %77

77:                                               ; preds = %.thread, %.thread51, %65, %8, %3
  %.0 = phi i64 [ -6, %3 ], [ -1, %8 ], [ -1, %65 ], [ %2, %.thread51 ], [ %2, %.thread ]
  ret i64 %.0
}